target datalayout = "e-m:e-p270:32:32-p271:32:32-p272:64:64-i64:64-i128:128-f80:128-n8:16:32:64-S128"
target triple = "x86_64-pc-linux-gnu"

%struct.RBasic = type { i64, i64 }
%struct.RArray = type { %struct.RBasic, %union.anon.14 }
%union.anon.14 = type { %struct.anon.15 }
%struct.anon.15 = type { i64, %union.anon.16, ptr }
%union.anon.16 = type { i64 }

@id_members = internal global i64 0, align 8
@id_back_members = internal global i64 0, align 8

; Function Attrs: inlinehint nounwind sspstrong willreturn memory(read) uwtable
define internal i64 @RB_FL_TEST_RAW(i64 noundef %0, i64 noundef %1) #6 {
  %3 = alloca i64, align 8
  %4 = alloca i64, align 8
  store i64 %0, ptr %3, align 8, !tbaa !7
  store i64 %1, ptr %4, align 8, !tbaa !7
  %5 = load i64, ptr %3, align 8, !tbaa !7
  %6 = inttoptr i64 %5 to ptr
  %7 = getelementptr inbounds nuw %struct.RBasic, ptr %6, i32 0, i32 0
  %8 = load i64, ptr %7, align 8, !tbaa !52
  %9 = load i64, ptr %4, align 8, !tbaa !7
  %10 = and i64 %8, %9
  ret i64 %10
}

; Function Attrs: inlinehint nounwind sspstrong willreturn memory(read) uwtable
define internal ptr @rb_array_const_ptr(i64 noundef %0) #6 {
  %2 = alloca ptr, align 8
  %3 = alloca i64, align 8
  store i64 %0, ptr %3, align 8, !tbaa !7
  %4 = load i64, ptr %3, align 8, !tbaa !7
  %5 = call zeroext i1 @RB_FL_ANY_RAW(i64 noundef %4, i64 noundef 8192) #28
  br i1 %5, label %6, label %11

6:                                                ; preds = %1
  %7 = load i64, ptr %3, align 8, !tbaa !7
  %8 = inttoptr i64 %7 to ptr
  %9 = getelementptr inbounds nuw %struct.RArray, ptr %8, i32 0, i32 1
  %10 = getelementptr inbounds [1 x i64], ptr %9, i64 0, i64 0
  store ptr %10, ptr %2, align 8
  br label %17

11:                                               ; preds = %1
  %12 = load i64, ptr %3, align 8, !tbaa !7
  %13 = inttoptr i64 %12 to ptr
  %14 = getelementptr inbounds nuw %struct.RArray, ptr %13, i32 0, i32 1
  %15 = getelementptr inbounds nuw %struct.anon.15, ptr %14, i32 0, i32 2
  %16 = load ptr, ptr %15, align 8, !tbaa !13
  store ptr %16, ptr %2, align 8
  br label %17

17:                                               ; preds = %11, %6
  %18 = load ptr, ptr %2, align 8
  ret ptr %18
}

; Function Attrs: inlinehint nounwind sspstrong willreturn memory(read) uwtable
define internal i64 @RARRAY_EMBED_LEN(i64 noundef %0) #6 {
  %2 = alloca i64, align 8
  %3 = alloca i64, align 8
  store i64 %0, ptr %2, align 8, !tbaa !7
  call void @llvm.lifetime.start.p0(i64 8, ptr %3) #26
  %4 = load i64, ptr %2, align 8, !tbaa !7
  %5 = inttoptr i64 %4 to ptr
  %6 = getelementptr inbounds nuw %struct.RBasic, ptr %5, i32 0, i32 0
  %7 = load i64, ptr %6, align 8, !tbaa !52
  store i64 %7, ptr %3, align 8, !tbaa !7
  %8 = load i64, ptr %3, align 8, !tbaa !7
  %9 = and i64 %8, 4161536
  store i64 %9, ptr %3, align 8, !tbaa !7
  %10 = load i64, ptr %3, align 8, !tbaa !7
  %11 = lshr i64 %10, 15
  store i64 %11, ptr %3, align 8, !tbaa !7
  %12 = load i64, ptr %3, align 8, !tbaa !7
  call void @llvm.lifetime.end.p0(i64 8, ptr %3) #26
  ret i64 %12
}

; Function Attrs: inlinehint nounwind sspstrong willreturn memory(read) uwtable
define internal zeroext i1 @RB_FL_ANY_RAW(i64 noundef %0, i64 noundef %1) #6 {
  %3 = alloca i64, align 8
  %4 = alloca i64, align 8
  store i64 %0, ptr %3, align 8, !tbaa !7
  store i64 %1, ptr %4, align 8, !tbaa !7
  %5 = load i64, ptr %3, align 8, !tbaa !7
  %6 = load i64, ptr %4, align 8, !tbaa !7
  %7 = call i64 @RB_FL_TEST_RAW(i64 noundef %5, i64 noundef %6) #28
  %8 = icmp ne i64 %7, 0
  ret i1 %8
}

; Function Attrs: nounwind sspstrong uwtable
define internal i64 @struct_member_pos_probe(i64 noundef %0, i64 noundef %1) #0 {
  %3 = alloca i64, align 8
  %4 = alloca i64, align 8
  store i64 %0, ptr %3, align 8, !tbaa !7
  store i64 %1, ptr %4, align 8, !tbaa !7
  %5 = load i64, ptr %3, align 8, !tbaa !7
  %6 = mul i64 %5, 5
  %7 = add i64 %6, 2
  %8 = load i64, ptr %4, align 8, !tbaa !7
  %9 = and i64 %7, %8
  ret i64 %9
}

; Function Attrs: inlinehint nounwind sspstrong willreturn memory(none) uwtable
define internal zeroext i1 @RB_TEST(i64 noundef %0) #3 {
  %2 = alloca i64, align 8
  store i64 %0, ptr %2, align 8, !tbaa !7
  %3 = load i64, ptr %2, align 8, !tbaa !7
  %4 = and i64 %3, -5
  %5 = icmp ne i64 %4, 0
  ret i1 %5
}

; Function Attrs: nounwind sspstrong uwtable
define internal i64 @struct_member_pos_ideal(i64 noundef %0, i64 noundef %1) #0 {
  %3 = alloca i64, align 8
  %4 = alloca i64, align 8
  store i64 %0, ptr %3, align 8, !tbaa !7
  store i64 %1, ptr %4, align 8, !tbaa !7
  %5 = load i64, ptr %3, align 8, !tbaa !7
  %6 = call i64 @rb_sym2id(i64 noundef %5)
  %7 = lshr i64 %6, 3
  %8 = load i64, ptr %4, align 8, !tbaa !7
  %9 = and i64 %7, %8
  ret i64 %9
}

; Function Attrs: inlinehint nounwind sspstrong willreturn memory(read) uwtable
define internal i64 @RARRAY_AREF(i64 noundef %0, i64 noundef %1) #6 {
  %3 = alloca i64, align 8
  %4 = alloca i64, align 8
  %5 = alloca i64, align 8
  store i64 %0, ptr %3, align 8, !tbaa !7
  store i64 %1, ptr %4, align 8, !tbaa !7
  call void @llvm.lifetime.start.p0(i64 8, ptr %5) #26
  %6 = load i64, ptr %3, align 8, !tbaa !7
  %7 = call ptr @rb_array_const_ptr(i64 noundef %6) #28
  %8 = load i64, ptr %4, align 8, !tbaa !7
  %9 = getelementptr i64, ptr %7, i64 %8
  %10 = load i64, ptr %9, align 8, !tbaa !7
  store i64 %10, ptr %5, align 8, !tbaa !7
  %11 = load i64, ptr %5, align 8, !tbaa !7
  call void @llvm.lifetime.end.p0(i64 8, ptr %5) #26
  ret i64 %11
}

; Function Attrs: inlinehint nounwind sspstrong willreturn memory(none) uwtable
define internal i64 @RB_INT2FIX(i64 noundef %0) #3 {
  %2 = alloca i64, align 8
  %3 = alloca i64, align 8
  %4 = alloca i64, align 8
  %5 = alloca i64, align 8
  %6 = alloca i64, align 8
  %7 = alloca i64, align 8
  store i64 %0, ptr %2, align 8, !tbaa !7
  call void @llvm.lifetime.start.p0(i64 8, ptr %3) #26
  %8 = load i64, ptr %2, align 8, !tbaa !7
  store i64 %8, ptr %3, align 8, !tbaa !7
  call void @llvm.lifetime.start.p0(i64 8, ptr %4) #26
  %9 = load i64, ptr %3, align 8, !tbaa !7
  %10 = shl i64 %9, 1
  %11 = add i64 %10, 1
  store i64 %11, ptr %4, align 8, !tbaa !7
  call void @llvm.lifetime.start.p0(i64 8, ptr %5) #26
  %12 = load i64, ptr %4, align 8, !tbaa !7
  store i64 %12, ptr %5, align 8, !tbaa !7
  call void @llvm.lifetime.start.p0(i64 8, ptr %6) #26
  %13 = load i64, ptr %5, align 8, !tbaa !7
  store i64 %13, ptr %6, align 8, !tbaa !7
  call void @llvm.lifetime.start.p0(i64 8, ptr %7) #26
  %14 = load i64, ptr %6, align 8, !tbaa !7
  store i64 %14, ptr %7, align 8, !tbaa !7
  %15 = load i64, ptr %7, align 8, !tbaa !7
  call void @llvm.lifetime.end.p0(i64 8, ptr %7) #26
  call void @llvm.lifetime.end.p0(i64 8, ptr %6) #26
  call void @llvm.lifetime.end.p0(i64 8, ptr %5) #26
  call void @llvm.lifetime.end.p0(i64 8, ptr %4) #26
  call void @llvm.lifetime.end.p0(i64 8, ptr %3) #26
  ret i64 %15
}

; Function Attrs: inlinehint nounwind sspstrong willreturn memory(read) uwtable
define internal i64 @rb_array_len(i64 noundef %0) #6 {
  %2 = alloca i64, align 8
  %3 = alloca i64, align 8
  store i64 %0, ptr %3, align 8, !tbaa !7
  %4 = load i64, ptr %3, align 8, !tbaa !7
  %5 = call zeroext i1 @RB_FL_ANY_RAW(i64 noundef %4, i64 noundef 8192) #28
  br i1 %5, label %6, label %9

6:                                                ; preds = %1
  %7 = load i64, ptr %3, align 8, !tbaa !7
  %8 = call i64 @RARRAY_EMBED_LEN(i64 noundef %7) #28
  store i64 %8, ptr %2, align 8
  br label %15

9:                                                ; preds = %1
  %10 = load i64, ptr %3, align 8, !tbaa !7
  %11 = inttoptr i64 %10 to ptr
  %12 = getelementptr inbounds nuw %struct.RArray, ptr %11, i32 0, i32 1
  %13 = getelementptr inbounds nuw %struct.anon.15, ptr %12, i32 0, i32 0
  %14 = load i64, ptr %13, align 8, !tbaa !13
  store i64 %14, ptr %2, align 8
  br label %15

15:                                               ; preds = %9, %6
  %16 = load i64, ptr %2, align 8
  ret i64 %16
}

; Function Attrs: nounwind sspstrong uwtable
define internal i64 @struct_set_members(i64 noundef %0, i64 noundef %1) #0 {
  %3 = alloca i64, align 8
  %4 = alloca i64, align 8
  %5 = alloca i64, align 8
  %6 = alloca i64, align 8
  %7 = alloca i64, align 8
  %8 = alloca i64, align 8
  %9 = alloca i64, align 8
  %10 = alloca i64, align 8
  store i64 %0, ptr %3, align 8, !tbaa !7
  store i64 %1, ptr %4, align 8, !tbaa !7
  call void @llvm.lifetime.start.p0(i64 8, ptr %5) #26
  call void @llvm.lifetime.start.p0(i64 8, ptr %6) #26
  %11 = load i64, ptr %4, align 8, !tbaa !7
  %12 = call i64 @rb_array_len(i64 noundef %11) #28
  store i64 %12, ptr %6, align 8, !tbaa !7
  %13 = load i64, ptr %6, align 8, !tbaa !7
  %14 = icmp sle i64 %13, 10
  br i1 %14, label %15, label %17

15:                                               ; preds = %2
  %16 = load i64, ptr %4, align 8, !tbaa !7
  store i64 %16, ptr %5, align 8, !tbaa !7
  br label %71

17:                                               ; preds = %2
  call void @llvm.lifetime.start.p0(i64 8, ptr %7) #26
  call void @llvm.lifetime.start.p0(i64 8, ptr %8) #26
  call void @llvm.lifetime.start.p0(i64 8, ptr %9) #26
  store i64 64, ptr %9, align 8, !tbaa !7
  call void @llvm.lifetime.start.p0(i64 8, ptr %10) #26
  br label %18

18:                                               ; preds = %23, %17
  %19 = load i64, ptr %9, align 8, !tbaa !7
  %20 = load i64, ptr %6, align 8, !tbaa !7
  %21 = mul i64 %20, 5
  %22 = icmp slt i64 %19, %21
  br i1 %22, label %23, label %26

23:                                               ; preds = %18
  %24 = load i64, ptr %9, align 8, !tbaa !7
  %25 = mul i64 %24, 2
  store i64 %25, ptr %9, align 8, !tbaa !7
  br label %18, !llvm.loop !53

26:                                               ; preds = %18
  %27 = load i64, ptr %9, align 8, !tbaa !7
  %28 = add i64 %27, 1
  %29 = call i64 @rb_ary_hidden_new(i64 noundef %28)
  store i64 %29, ptr %5, align 8, !tbaa !7
  %30 = load i64, ptr %5, align 8, !tbaa !7
  %31 = load i64, ptr %9, align 8, !tbaa !7
  %32 = load i64, ptr %6, align 8, !tbaa !7
  %33 = call i64 @RB_INT2FIX(i64 noundef %32) #27
  call void @rb_ary_store(i64 noundef %30, i64 noundef %31, i64 noundef %33)
  %34 = load i64, ptr %9, align 8, !tbaa !7
  %35 = sub i64 %34, 2
  store i64 %35, ptr %9, align 8, !tbaa !7
  store i64 0, ptr %7, align 8, !tbaa !7
  br label %36

36:                                               ; preds = %66, %26
  %37 = load i64, ptr %7, align 8, !tbaa !7
  %38 = load i64, ptr %6, align 8, !tbaa !7
  %39 = icmp slt i64 %37, %38
  br i1 %39, label %40, label %69

40:                                               ; preds = %36
  %41 = load i64, ptr %4, align 8, !tbaa !7
  %42 = load i64, ptr %7, align 8, !tbaa !7
  %43 = call i64 @RARRAY_AREF(i64 noundef %41, i64 noundef %42) #28
  store i64 %43, ptr %10, align 8, !tbaa !7
  %44 = load i64, ptr %10, align 8, !tbaa !7
  %45 = load i64, ptr %9, align 8, !tbaa !7
  %46 = call i64 @struct_member_pos_ideal(i64 noundef %44, i64 noundef %45)
  store i64 %46, ptr %8, align 8, !tbaa !7
  br label %47

47:                                               ; preds = %61, %40
  %48 = load i64, ptr %5, align 8, !tbaa !7
  %49 = load i64, ptr %8, align 8, !tbaa !7
  %50 = call i64 @RARRAY_AREF(i64 noundef %48, i64 noundef %49) #28
  %51 = call zeroext i1 @RB_TEST(i64 noundef %50) #27
  br i1 %51, label %61, label %52

52:                                               ; preds = %47
  %53 = load i64, ptr %5, align 8, !tbaa !7
  %54 = load i64, ptr %8, align 8, !tbaa !7
  %55 = load i64, ptr %10, align 8, !tbaa !7
  call void @rb_ary_store(i64 noundef %53, i64 noundef %54, i64 noundef %55)
  %56 = load i64, ptr %5, align 8, !tbaa !7
  %57 = load i64, ptr %8, align 8, !tbaa !7
  %58 = add i64 %57, 1
  %59 = load i64, ptr %7, align 8, !tbaa !7
  %60 = call i64 @RB_INT2FIX(i64 noundef %59) #27
  call void @rb_ary_store(i64 noundef %56, i64 noundef %58, i64 noundef %60)
  br label %65

61:                                               ; preds = %47
  %62 = load i64, ptr %8, align 8, !tbaa !7
  %63 = load i64, ptr %9, align 8, !tbaa !7
  %64 = call i64 @struct_member_pos_probe(i64 noundef %62, i64 noundef %63)
  store i64 %64, ptr %8, align 8, !tbaa !7
  br label %47

65:                                               ; preds = %52
  br label %66

66:                                               ; preds = %65
  %67 = load i64, ptr %7, align 8, !tbaa !7
  %68 = add i64 %67, 1
  store i64 %68, ptr %7, align 8, !tbaa !7
  br label %36, !llvm.loop !54

69:                                               ; preds = %36
  %70 = load i64, ptr %5, align 8, !tbaa !7
  call void @rb_obj_freeze_inline(i64 noundef %70)
  call void @llvm.lifetime.end.p0(i64 8, ptr %10) #26
  call void @llvm.lifetime.end.p0(i64 8, ptr %9) #26
  call void @llvm.lifetime.end.p0(i64 8, ptr %8) #26
  call void @llvm.lifetime.end.p0(i64 8, ptr %7) #26
  br label %71

71:                                               ; preds = %69, %15
  %72 = load i64, ptr %3, align 8, !tbaa !7
  %73 = load i64, ptr @id_members, align 8, !tbaa !7
  %74 = load i64, ptr %4, align 8, !tbaa !7
  %75 = call i64 @rb_ivar_set(i64 noundef %72, i64 noundef %73, i64 noundef %74)
  %76 = load i64, ptr %3, align 8, !tbaa !7
  %77 = load i64, ptr @id_back_members, align 8, !tbaa !7
  %78 = load i64, ptr %5, align 8, !tbaa !7
  %79 = call i64 @rb_ivar_set(i64 noundef %76, i64 noundef %77, i64 noundef %78)
  %80 = load i64, ptr %4, align 8, !tbaa !7
  call void @llvm.lifetime.end.p0(i64 8, ptr %6) #26
  call void @llvm.lifetime.end.p0(i64 8, ptr %5) #26
  ret i64 %80
}