; Function Attrs: nounwind sspstrong uwtable
define internal fastcc noundef i64 @struct_set_members(i64 noundef %0, i64 noundef returned %1) unnamed_addr #0 {
  %3 = inttoptr i64 %1 to ptr
  %4 = load i64, ptr %3, align 8, !tbaa !11
  %5 = and i64 %4, 8192
  %.not.i = icmp eq i64 %5, 0
  br i1 %.not.i, label %9, label %6

6:                                                ; preds = %2
  %7 = lshr i64 %4, 15
  %8 = and i64 %7, 127
  br label %rb_array_len.exit

9:                                                ; preds = %2
  %10 = getelementptr inbounds nuw i8, ptr %3, i64 16
  %11 = load i64, ptr %10, align 8, !tbaa !13
  br label %rb_array_len.exit

rb_array_len.exit:                                ; preds = %6, %9
  %.0.i = phi i64 [ %8, %6 ], [ %11, %9 ]
  %12 = icmp slt i64 %.0.i, 11
  br i1 %12, label %59, label %.preheader

.preheader:                                       ; preds = %rb_array_len.exit
  %13 = mul i64 %.0.i, 5
  br label %14

14:                                               ; preds = %14, %.preheader
  %.034 = phi i64 [ %16, %14 ], [ 64, %.preheader ]
  %15 = icmp slt i64 %.034, %13
  %16 = shl i64 %.034, 1
  br i1 %15, label %14, label %.lr.ph50, !llvm.loop !58

.lr.ph50:                                         ; preds = %14
  %17 = or disjoint i64 %.034, 1
  %18 = tail call i64 @rb_ary_hidden_new(i64 noundef %17) #19
  %19 = shl nuw i64 %.0.i, 1
  %20 = or disjoint i64 %19, 1
  tail call void @rb_ary_store(i64 noundef %18, i64 noundef %.034, i64 noundef %20) #19
  %21 = add i64 %.034, -2
  %22 = getelementptr inbounds nuw i8, ptr %3, i64 16
  %23 = getelementptr inbounds nuw i8, ptr %3, i64 32
  %24 = inttoptr i64 %18 to ptr
  %25 = getelementptr inbounds nuw i8, ptr %24, i64 16
  %26 = getelementptr inbounds nuw i8, ptr %24, i64 32
  br label %27

27:                                               ; preds = %.lr.ph50, %.split.us
  %.03649 = phi i64 [ 0, %.lr.ph50 ], [ %53, %.split.us ]
  %28 = load i64, ptr %3, align 8, !tbaa !11
  %29 = and i64 %28, 8192
  %.not.i.i = icmp eq i64 %29, 0
  br i1 %.not.i.i, label %30, label %RARRAY_AREF.exit

30:                                               ; preds = %27
  %31 = load ptr, ptr %23, align 8, !tbaa !13
  br label %RARRAY_AREF.exit

RARRAY_AREF.exit:                                 ; preds = %27, %30
  %.0.i.i = phi ptr [ %31, %30 ], [ %22, %27 ]
  %32 = getelementptr i64, ptr %.0.i.i, i64 %.03649
  %33 = load i64, ptr %32, align 8, !tbaa !7
  %34 = tail call i64 @rb_sym2id(i64 noundef %33) #19
  %35 = lshr i64 %34, 3
  %36 = load i64, ptr %24, align 8, !tbaa !11
  %37 = and i64 %36, 8192
  %.not.i.i38 = icmp eq i64 %37, 0
  br i1 %.not.i.i38, label %RARRAY_AREF.exit.split.us, label %RARRAY_AREF.exit.split

RARRAY_AREF.exit.split.us:                        ; preds = %RARRAY_AREF.exit
  %38 = load ptr, ptr %26, align 8, !tbaa !13
  %.035.us44 = and i64 %35, %21
  %39 = getelementptr i64, ptr %38, i64 %.035.us44
  %40 = load i64, ptr %39, align 8, !tbaa !7
  %41 = and i64 %40, -5
  %.not.us45 = icmp eq i64 %41, 0
  br i1 %.not.us45, label %.split.us, label %RARRAY_AREF.exit40.us

RARRAY_AREF.exit40.us:                            ; preds = %RARRAY_AREF.exit.split.us, %RARRAY_AREF.exit40.us
  %.035.us46 = phi i64 [ %.035.us, %RARRAY_AREF.exit40.us ], [ %.035.us44, %RARRAY_AREF.exit.split.us ]
  %42 = mul i64 %.035.us46, 5
  %43 = add i64 %42, 2
  %.035.us = and i64 %43, %21
  %44 = getelementptr i64, ptr %38, i64 %.035.us
  %45 = load i64, ptr %44, align 8, !tbaa !7
  %46 = and i64 %45, -5
  %.not.us = icmp eq i64 %46, 0
  br i1 %.not.us, label %.split.us, label %RARRAY_AREF.exit40.us

RARRAY_AREF.exit.split:                           ; preds = %RARRAY_AREF.exit
  %.03541 = and i64 %35, %21
  %47 = getelementptr i64, ptr %25, i64 %.03541
  %48 = load i64, ptr %47, align 8, !tbaa !7
  %49 = and i64 %48, -5
  %.not42 = icmp eq i64 %49, 0
  br i1 %.not42, label %.split.us, label %RARRAY_AREF.exit40

.split.us:                                        ; preds = %RARRAY_AREF.exit40, %RARRAY_AREF.exit40.us, %RARRAY_AREF.exit.split, %RARRAY_AREF.exit.split.us
  %.us-phi = phi i64 [ %.035.us44, %RARRAY_AREF.exit.split.us ], [ %.03541, %RARRAY_AREF.exit.split ], [ %.035.us, %RARRAY_AREF.exit40.us ], [ %.035, %RARRAY_AREF.exit40 ]
  tail call void @rb_ary_store(i64 noundef %18, i64 noundef %.us-phi, i64 noundef %33) #19
  %50 = or disjoint i64 %.us-phi, 1
  %51 = shl nuw i64 %.03649, 1
  %52 = or disjoint i64 %51, 1
  tail call void @rb_ary_store(i64 noundef %18, i64 noundef %50, i64 noundef %52) #19
  %53 = add nuw nsw i64 %.03649, 1
  %exitcond.not = icmp eq i64 %53, %.0.i
  br i1 %exitcond.not, label %._crit_edge, label %27, !llvm.loop !59

RARRAY_AREF.exit40:                               ; preds = %RARRAY_AREF.exit.split, %RARRAY_AREF.exit40
  %.03543 = phi i64 [ %.035, %RARRAY_AREF.exit40 ], [ %.03541, %RARRAY_AREF.exit.split ]
  %54 = mul i64 %.03543, 5
  %55 = add i64 %54, 2
  %.035 = and i64 %55, %21
  %56 = getelementptr i64, ptr %25, i64 %.035
  %57 = load i64, ptr %56, align 8, !tbaa !7
  %58 = and i64 %57, -5
  %.not = icmp eq i64 %58, 0
  br i1 %.not, label %.split.us, label %RARRAY_AREF.exit40

._crit_edge:                                      ; preds = %.split.us
  tail call void @rb_obj_freeze_inline(i64 noundef %18) #19
  br label %59

59:                                               ; preds = %rb_array_len.exit, %._crit_edge
  %.0 = phi i64 [ %18, %._crit_edge ], [ %1, %rb_array_len.exit ]
  %60 = load i64, ptr @id_members, align 8, !tbaa !7
  %61 = tail call i64 @rb_ivar_set(i64 noundef %0, i64 noundef %60, i64 noundef %1) #19
  %62 = load i64, ptr @id_back_members, align 8, !tbaa !7
  %63 = tail call i64 @rb_ivar_set(i64 noundef %0, i64 noundef %62, i64 noundef %.0) #19
  ret i64 %1
}